target datalayout = "e-m:e-p270:32:32-p271:32:32-p272:64:64-i64:64-i128:128-f80:128-n8:16:32:64-S128"
target triple = "x86_64-pc-linux-gnu"

@proto_register_geneve.ett = internal global [5 x ptr] [ptr @ett_geneve, ptr @ett_geneve_flags, ptr @ett_geneve_options, ptr @ett_geneve_opt_flags, ptr @ett_geneve_opt_data], align 16
@.str.65 = private unnamed_addr constant [45 x i8] c"Generic Network Virtualization Encapsulation\00", align 1
@.str.66 = private unnamed_addr constant [7 x i8] c"Geneve\00", align 1
@.str.67 = private unnamed_addr constant [7 x i8] c"geneve\00", align 1
@proto_geneve = internal global i32 0, align 4
@geneve_handle = internal global ptr null, align 8

; Function Attrs: null_pointer_is_valid sspstrong uwtable
define hidden void @proto_register_geneve() #0 {
  %1 = alloca ptr, align 8
  call void @llvm.lifetime.start.p0(i64 8, ptr %1) #4
  %2 = call i32 @proto_register_protocol(ptr noundef @.str.65, ptr noundef @.str.66, ptr noundef @.str.67)
  store i32 %2, ptr @proto_geneve, align 4
  %3 = load i32, ptr @proto_geneve, align 4
  call void @proto_register_field_array(i32 noundef %3, ptr noundef @proto_register_geneve.hf, i32 noundef 32)
  call void @proto_register_subtree_array(ptr noundef @proto_register_geneve.ett, i32 noundef 5)
  %4 = load i32, ptr @proto_geneve, align 4
  %5 = call ptr @expert_register_protocol(i32 noundef %4)
  store ptr %5, ptr %1, align 8
  %6 = load ptr, ptr %1, align 8
  call void @expert_register_field_array(ptr noundef %6, ptr noundef @proto_register_geneve.ei, i32 noundef 2)
  %7 = load i32, ptr @proto_geneve, align 4
  %8 = call ptr @register_dissector(ptr noundef @.str.67, ptr noundef @dissect_geneve, i32 noundef %7)
  store ptr %8, ptr @geneve_handle, align 8
  call void @llvm.lifetime.end.p0(i64 8, ptr %1) #4
  ret void
}